target datalayout = "e-m:e-p270:32:32-p271:32:32-p272:64:64-i64:64-i128:128-f80:128-n8:16:32:64-S128"
target triple = "x86_64-pc-linux-gnu"

%struct.expert_field = type { i32, i32 }
%struct._packet_info = type { ptr, ptr, i32, i32, %struct.nstime_t, %struct.nstime_t, %struct.nstime_t, i8, ptr, ptr, ptr, ptr, %struct._address, %struct._address, %struct._address, %struct._address, %struct._address, %struct._address, i32, ptr, i8, [3 x i8], %struct.anon, i32, i32, i32, i32, ptr, i8, ptr, ptr, i16, i16, i32, i32, i16, i32, i32, ptr, ptr, ptr, i8, i8, i16, i16, i16, i32, i16, i16, ptr, ptr, ptr, ptr, ptr, i32, i32 }
%struct.nstime_t = type { i64, i32 }
%struct._address = type { i32, i32, ptr, ptr }
%struct.anon = type { i8, [3 x i8] }

@hf_dmx_sip_byte_count = internal global i32 0, align 4
@hf_dmx_sip_control_bit_field = internal global i32 0, align 4
@hf_dmx_sip_prev_packet_checksum = internal global i32 0, align 4
@hf_dmx_sip_seq_nr = internal global i32 0, align 4
@hf_dmx_sip_dmx_universe_nr = internal global i32 0, align 4
@hf_dmx_sip_dmx_proc_level = internal global i32 0, align 4
@hf_dmx_sip_dmx_software_version = internal global i32 0, align 4
@hf_dmx_sip_dmx_packet_len = internal global i32 0, align 4
@hf_dmx_sip_dmx_nr_packets = internal global i32 0, align 4
@hf_dmx_sip_orig_dev_id = internal global i32 0, align 4
@hf_dmx_sip_sec_dev_id = internal global i32 0, align 4
@hf_dmx_sip_third_dev_id = internal global i32 0, align 4
@hf_dmx_sip_fourth_dev_id = internal global i32 0, align 4
@hf_dmx_sip_fifth_dev_id = internal global i32 0, align 4
@hf_dmx_sip_reserved = internal global i32 0, align 4
@hf_dmx_sip_checksum = internal global i32 0, align 4
@hf_dmx_sip_checksum_status = internal global i32 0, align 4
@hf_dmx_sip_trailer = internal global i32 0, align 4
@ett_dmx_sip = internal global i32 0, align 4
@ei_dmx_sip_checksum = internal global %struct.expert_field zeroinitializer, align 4
@.str.70 = private unnamed_addr constant [8 x i8] c"DMX SIP\00", align 1
@proto_dmx_sip = internal global i32 0, align 4

; Function Attrs: null_pointer_is_valid sspstrong uwtable
define internal zeroext i8 @dmx_sip_checksum(ptr noundef %0, i32 noundef %1) #0 {
  %3 = alloca ptr, align 8
  %4 = alloca i32, align 4
  %5 = alloca i8, align 1
  %6 = alloca i32, align 4
  store ptr %0, ptr %3, align 8
  store i32 %1, ptr %4, align 4
  call void @llvm.lifetime.start.p0(i64 1, ptr %5) #4
  store i8 -49, ptr %5, align 1
  call void @llvm.lifetime.start.p0(i64 4, ptr %6) #4
  store i32 0, ptr %6, align 4
  br label %7

7:                                                ; preds = %20, %2
  %8 = load i32, ptr %6, align 4
  %9 = load i32, ptr %4, align 4
  %10 = icmp ult i32 %8, %9
  br i1 %10, label %11, label %23

11:                                               ; preds = %7
  %12 = load ptr, ptr %3, align 8
  %13 = load i32, ptr %6, align 4
  %14 = call zeroext i8 @tvb_get_uint8(ptr noundef %12, i32 noundef %13)
  %15 = zext i8 %14 to i32
  %16 = load i8, ptr %5, align 1
  %17 = zext i8 %16 to i32
  %18 = add i32 %17, %15
  %19 = trunc i32 %18 to i8
  store i8 %19, ptr %5, align 1
  br label %20

20:                                               ; preds = %11
  %21 = load i32, ptr %6, align 4
  %22 = add i32 %21, 1
  store i32 %22, ptr %6, align 4
  br label %7, !llvm.loop !10

23:                                               ; preds = %7
  %24 = load i8, ptr %5, align 1
  call void @llvm.lifetime.end.p0(i64 4, ptr %6) #4
  call void @llvm.lifetime.end.p0(i64 1, ptr %5) #4
  ret i8 %24
}

; Function Attrs: null_pointer_is_valid sspstrong uwtable
define internal i32 @dissect_dmx_sip(ptr noundef %0, ptr noundef %1, ptr noundef %2, ptr noundef %3) #0 {
  %5 = alloca ptr, align 8
  %6 = alloca ptr, align 8
  %7 = alloca ptr, align 8
  %8 = alloca ptr, align 8
  %9 = alloca i32, align 4
  %10 = alloca i32, align 4
  %11 = alloca ptr, align 8
  %12 = alloca ptr, align 8
  store ptr %0, ptr %5, align 8
  store ptr %1, ptr %6, align 8
  store ptr %2, ptr %7, align 8
  store ptr %3, ptr %8, align 8
  %13 = load ptr, ptr %6, align 8
  %14 = getelementptr inbounds nuw %struct._packet_info, ptr %13, i32 0, i32 1
  %15 = load ptr, ptr %14, align 8
  call void @col_set_str(ptr noundef %15, i32 noundef 35, ptr noundef @.str.70)
  %16 = load ptr, ptr %6, align 8
  %17 = getelementptr inbounds nuw %struct._packet_info, ptr %16, i32 0, i32 1
  %18 = load ptr, ptr %17, align 8
  call void @col_clear(ptr noundef %18, i32 noundef 25)
  %19 = load ptr, ptr %7, align 8
  %20 = icmp ne ptr %19, null
  br i1 %20, label %21, label %174

21:                                               ; preds = %4
  call void @llvm.lifetime.start.p0(i64 4, ptr %9) #4
  store i32 0, ptr %9, align 4
  call void @llvm.lifetime.start.p0(i64 4, ptr %10) #4
  call void @llvm.lifetime.start.p0(i64 8, ptr %11) #4
  %22 = load ptr, ptr %7, align 8
  %23 = load i32, ptr @proto_dmx_sip, align 4
  %24 = load ptr, ptr %5, align 8
  %25 = load i32, ptr %9, align 4
  %26 = call ptr @proto_tree_add_item(ptr noundef %22, i32 noundef %23, ptr noundef %24, i32 noundef %25, i32 noundef -1, i32 noundef 0)
  store ptr %26, ptr %11, align 8
  call void @llvm.lifetime.start.p0(i64 8, ptr %12) #4
  %27 = load ptr, ptr %11, align 8
  %28 = load i32, ptr @ett_dmx_sip, align 4
  %29 = call ptr @proto_item_add_subtree(ptr noundef %27, i32 noundef %28)
  store ptr %29, ptr %12, align 8
  %30 = load ptr, ptr %5, align 8
  %31 = load i32, ptr %9, align 4
  %32 = call zeroext i8 @tvb_get_uint8(ptr noundef %30, i32 noundef %31)
  %33 = zext i8 %32 to i32
  store i32 %33, ptr %10, align 4
  %34 = load ptr, ptr %12, align 8
  %35 = load i32, ptr @hf_dmx_sip_byte_count, align 4
  %36 = load ptr, ptr %5, align 8
  %37 = load i32, ptr %9, align 4
  %38 = call ptr @proto_tree_add_item(ptr noundef %34, i32 noundef %35, ptr noundef %36, i32 noundef %37, i32 noundef 1, i32 noundef 0)
  %39 = load i32, ptr %9, align 4
  %40 = add i32 %39, 1
  store i32 %40, ptr %9, align 4
  %41 = load ptr, ptr %12, align 8
  %42 = load i32, ptr @hf_dmx_sip_control_bit_field, align 4
  %43 = load ptr, ptr %5, align 8
  %44 = load i32, ptr %9, align 4
  %45 = call ptr @proto_tree_add_item(ptr noundef %41, i32 noundef %42, ptr noundef %43, i32 noundef %44, i32 noundef 1, i32 noundef 0)
  %46 = load i32, ptr %9, align 4
  %47 = add i32 %46, 1
  store i32 %47, ptr %9, align 4
  %48 = load ptr, ptr %12, align 8
  %49 = load i32, ptr @hf_dmx_sip_prev_packet_checksum, align 4
  %50 = load ptr, ptr %5, align 8
  %51 = load i32, ptr %9, align 4
  %52 = call ptr @proto_tree_add_item(ptr noundef %48, i32 noundef %49, ptr noundef %50, i32 noundef %51, i32 noundef 2, i32 noundef 0)
  %53 = load i32, ptr %9, align 4
  %54 = add i32 %53, 2
  store i32 %54, ptr %9, align 4
  %55 = load ptr, ptr %12, align 8
  %56 = load i32, ptr @hf_dmx_sip_seq_nr, align 4
  %57 = load ptr, ptr %5, align 8
  %58 = load i32, ptr %9, align 4
  %59 = call ptr @proto_tree_add_item(ptr noundef %55, i32 noundef %56, ptr noundef %57, i32 noundef %58, i32 noundef 1, i32 noundef 0)
  %60 = load i32, ptr %9, align 4
  %61 = add i32 %60, 1
  store i32 %61, ptr %9, align 4
  %62 = load ptr, ptr %12, align 8
  %63 = load i32, ptr @hf_dmx_sip_dmx_universe_nr, align 4
  %64 = load ptr, ptr %5, align 8
  %65 = load i32, ptr %9, align 4
  %66 = call ptr @proto_tree_add_item(ptr noundef %62, i32 noundef %63, ptr noundef %64, i32 noundef %65, i32 noundef 1, i32 noundef 0)
  %67 = load i32, ptr %9, align 4
  %68 = add i32 %67, 1
  store i32 %68, ptr %9, align 4
  %69 = load ptr, ptr %12, align 8
  %70 = load i32, ptr @hf_dmx_sip_dmx_proc_level, align 4
  %71 = load ptr, ptr %5, align 8
  %72 = load i32, ptr %9, align 4
  %73 = call ptr @proto_tree_add_item(ptr noundef %69, i32 noundef %70, ptr noundef %71, i32 noundef %72, i32 noundef 1, i32 noundef 0)
  %74 = load i32, ptr %9, align 4
  %75 = add i32 %74, 1
  store i32 %75, ptr %9, align 4
  %76 = load ptr, ptr %12, align 8
  %77 = load i32, ptr @hf_dmx_sip_dmx_software_version, align 4
  %78 = load ptr, ptr %5, align 8
  %79 = load i32, ptr %9, align 4
  %80 = call ptr @proto_tree_add_item(ptr noundef %76, i32 noundef %77, ptr noundef %78, i32 noundef %79, i32 noundef 1, i32 noundef 0)
  %81 = load i32, ptr %9, align 4
  %82 = add i32 %81, 1
  store i32 %82, ptr %9, align 4
  %83 = load ptr, ptr %12, align 8
  %84 = load i32, ptr @hf_dmx_sip_dmx_packet_len, align 4
  %85 = load ptr, ptr %5, align 8
  %86 = load i32, ptr %9, align 4
  %87 = call ptr @proto_tree_add_item(ptr noundef %83, i32 noundef %84, ptr noundef %85, i32 noundef %86, i32 noundef 2, i32 noundef 0)
  %88 = load i32, ptr %9, align 4
  %89 = add i32 %88, 2
  store i32 %89, ptr %9, align 4
  %90 = load ptr, ptr %12, align 8
  %91 = load i32, ptr @hf_dmx_sip_dmx_nr_packets, align 4
  %92 = load ptr, ptr %5, align 8
  %93 = load i32, ptr %9, align 4
  %94 = call ptr @proto_tree_add_item(ptr noundef %90, i32 noundef %91, ptr noundef %92, i32 noundef %93, i32 noundef 2, i32 noundef 0)
  %95 = load i32, ptr %9, align 4
  %96 = add i32 %95, 2
  store i32 %96, ptr %9, align 4
  %97 = load ptr, ptr %12, align 8
  %98 = load i32, ptr @hf_dmx_sip_orig_dev_id, align 4
  %99 = load ptr, ptr %5, align 8
  %100 = load i32, ptr %9, align 4
  %101 = call ptr @proto_tree_add_item(ptr noundef %97, i32 noundef %98, ptr noundef %99, i32 noundef %100, i32 noundef 2, i32 noundef 0)
  %102 = load i32, ptr %9, align 4
  %103 = add i32 %102, 2
  store i32 %103, ptr %9, align 4
  %104 = load ptr, ptr %12, align 8
  %105 = load i32, ptr @hf_dmx_sip_sec_dev_id, align 4
  %106 = load ptr, ptr %5, align 8
  %107 = load i32, ptr %9, align 4
  %108 = call ptr @proto_tree_add_item(ptr noundef %104, i32 noundef %105, ptr noundef %106, i32 noundef %107, i32 noundef 2, i32 noundef 0)
  %109 = load i32, ptr %9, align 4
  %110 = add i32 %109, 2
  store i32 %110, ptr %9, align 4
  %111 = load ptr, ptr %12, align 8
  %112 = load i32, ptr @hf_dmx_sip_third_dev_id, align 4
  %113 = load ptr, ptr %5, align 8
  %114 = load i32, ptr %9, align 4
  %115 = call ptr @proto_tree_add_item(ptr noundef %111, i32 noundef %112, ptr noundef %113, i32 noundef %114, i32 noundef 2, i32 noundef 0)
  %116 = load i32, ptr %9, align 4
  %117 = add i32 %116, 2
  store i32 %117, ptr %9, align 4
  %118 = load ptr, ptr %12, align 8
  %119 = load i32, ptr @hf_dmx_sip_fourth_dev_id, align 4
  %120 = load ptr, ptr %5, align 8
  %121 = load i32, ptr %9, align 4
  %122 = call ptr @proto_tree_add_item(ptr noundef %118, i32 noundef %119, ptr noundef %120, i32 noundef %121, i32 noundef 2, i32 noundef 0)
  %123 = load i32, ptr %9, align 4
  %124 = add i32 %123, 2
  store i32 %124, ptr %9, align 4
  %125 = load ptr, ptr %12, align 8
  %126 = load i32, ptr @hf_dmx_sip_fifth_dev_id, align 4
  %127 = load ptr, ptr %5, align 8
  %128 = load i32, ptr %9, align 4
  %129 = call ptr @proto_tree_add_item(ptr noundef %125, i32 noundef %126, ptr noundef %127, i32 noundef %128, i32 noundef 2, i32 noundef 0)
  %130 = load i32, ptr %9, align 4
  %131 = add i32 %130, 2
  store i32 %131, ptr %9, align 4
  %132 = load i32, ptr %9, align 4
  %133 = load i32, ptr %10, align 4
  %134 = icmp ult i32 %132, %133
  br i1 %134, label %135, label %149

135:                                              ; preds = %21
  %136 = load ptr, ptr %12, align 8
  %137 = load i32, ptr @hf_dmx_sip_reserved, align 4
  %138 = load ptr, ptr %5, align 8
  %139 = load i32, ptr %9, align 4
  %140 = load i32, ptr %10, align 4
  %141 = load i32, ptr %9, align 4
  %142 = sub i32 %140, %141
  %143 = call ptr @proto_tree_add_item(ptr noundef %136, i32 noundef %137, ptr noundef %138, i32 noundef %139, i32 noundef %142, i32 noundef 0)
  %144 = load i32, ptr %10, align 4
  %145 = load i32, ptr %9, align 4
  %146 = sub i32 %144, %145
  %147 = load i32, ptr %9, align 4
  %148 = add i32 %147, %146
  store i32 %148, ptr %9, align 4
  br label %149

149:                                              ; preds = %135, %21
  %150 = load ptr, ptr %12, align 8
  %151 = load ptr, ptr %5, align 8
  %152 = load i32, ptr %9, align 4
  %153 = load i32, ptr @hf_dmx_sip_checksum, align 4
  %154 = load i32, ptr @hf_dmx_sip_checksum_status, align 4
  %155 = load ptr, ptr %6, align 8
  %156 = load ptr, ptr %5, align 8
  %157 = load i32, ptr %9, align 4
  %158 = call zeroext i8 @dmx_sip_checksum(ptr noundef %156, i32 noundef %157)
  %159 = zext i8 %158 to i32
  %160 = call ptr @proto_tree_add_checksum(ptr noundef %150, ptr noundef %151, i32 noundef %152, i32 noundef %153, i32 noundef %154, ptr noundef @ei_dmx_sip_checksum, ptr noundef %155, i32 noundef %159, i32 noundef 0, i32 noundef 1)
  %161 = load i32, ptr %9, align 4
  %162 = add i32 %161, 1
  store i32 %162, ptr %9, align 4
  %163 = load i32, ptr %9, align 4
  %164 = load ptr, ptr %5, align 8
  %165 = call i32 @tvb_reported_length(ptr noundef %164)
  %166 = icmp ult i32 %163, %165
  br i1 %166, label %167, label %173

167:                                              ; preds = %149
  %168 = load ptr, ptr %12, align 8
  %169 = load i32, ptr @hf_dmx_sip_trailer, align 4
  %170 = load ptr, ptr %5, align 8
  %171 = load i32, ptr %9, align 4
  %172 = call ptr @proto_tree_add_item(ptr noundef %168, i32 noundef %169, ptr noundef %170, i32 noundef %171, i32 noundef -1, i32 noundef 0)
  br label %173

173:                                              ; preds = %167, %149
  call void @llvm.lifetime.end.p0(i64 8, ptr %12) #4
  call void @llvm.lifetime.end.p0(i64 8, ptr %11) #4
  call void @llvm.lifetime.end.p0(i64 4, ptr %10) #4
  call void @llvm.lifetime.end.p0(i64 4, ptr %9) #4
  br label %174

174:                                              ; preds = %173, %4
  %175 = load ptr, ptr %5, align 8
  %176 = call i32 @tvb_captured_length(ptr noundef %175)
  ret i32 %176
}