; Function Attrs: null_pointer_is_valid sspstrong uwtable
define internal i32 @dissect_dmx_sip(ptr noundef %0, ptr noundef %1, ptr noundef %2, ptr readnone captures(none) %3) #0 {
  %5 = getelementptr inbounds nuw i8, ptr %1, i64 8
  %6 = load ptr, ptr %5, align 8
  tail call void @col_set_str(ptr noundef %6, i32 noundef 35, ptr noundef nonnull @.str.70)
  %7 = load ptr, ptr %5, align 8
  tail call void @col_clear(ptr noundef %7, i32 noundef 25)
  %.not = icmp eq ptr %2, null
  br i1 %.not, label %63, label %8

8:                                                ; preds = %4
  %9 = load i32, ptr @proto_dmx_sip, align 4
  %10 = tail call ptr @proto_tree_add_item(ptr noundef nonnull %2, i32 noundef %9, ptr noundef %0, i32 noundef 0, i32 noundef -1, i32 noundef 0)
  %11 = load i32, ptr @ett_dmx_sip, align 4
  %12 = tail call ptr @proto_item_add_subtree(ptr noundef %10, i32 noundef %11)
  %13 = tail call zeroext i8 @tvb_get_uint8(ptr noundef %0, i32 noundef 0)
  %14 = load i32, ptr @hf_dmx_sip_byte_count, align 4
  %15 = tail call ptr @proto_tree_add_item(ptr noundef %12, i32 noundef %14, ptr noundef %0, i32 noundef 0, i32 noundef 1, i32 noundef 0)
  %16 = load i32, ptr @hf_dmx_sip_control_bit_field, align 4
  %17 = tail call ptr @proto_tree_add_item(ptr noundef %12, i32 noundef %16, ptr noundef %0, i32 noundef 1, i32 noundef 1, i32 noundef 0)
  %18 = load i32, ptr @hf_dmx_sip_prev_packet_checksum, align 4
  %19 = tail call ptr @proto_tree_add_item(ptr noundef %12, i32 noundef %18, ptr noundef %0, i32 noundef 2, i32 noundef 2, i32 noundef 0)
  %20 = load i32, ptr @hf_dmx_sip_seq_nr, align 4
  %21 = tail call ptr @proto_tree_add_item(ptr noundef %12, i32 noundef %20, ptr noundef %0, i32 noundef 4, i32 noundef 1, i32 noundef 0)
  %22 = load i32, ptr @hf_dmx_sip_dmx_universe_nr, align 4
  %23 = tail call ptr @proto_tree_add_item(ptr noundef %12, i32 noundef %22, ptr noundef %0, i32 noundef 5, i32 noundef 1, i32 noundef 0)
  %24 = load i32, ptr @hf_dmx_sip_dmx_proc_level, align 4
  %25 = tail call ptr @proto_tree_add_item(ptr noundef %12, i32 noundef %24, ptr noundef %0, i32 noundef 6, i32 noundef 1, i32 noundef 0)
  %26 = load i32, ptr @hf_dmx_sip_dmx_software_version, align 4
  %27 = tail call ptr @proto_tree_add_item(ptr noundef %12, i32 noundef %26, ptr noundef %0, i32 noundef 7, i32 noundef 1, i32 noundef 0)
  %28 = load i32, ptr @hf_dmx_sip_dmx_packet_len, align 4
  %29 = tail call ptr @proto_tree_add_item(ptr noundef %12, i32 noundef %28, ptr noundef %0, i32 noundef 8, i32 noundef 2, i32 noundef 0)
  %30 = load i32, ptr @hf_dmx_sip_dmx_nr_packets, align 4
  %31 = tail call ptr @proto_tree_add_item(ptr noundef %12, i32 noundef %30, ptr noundef %0, i32 noundef 10, i32 noundef 2, i32 noundef 0)
  %32 = load i32, ptr @hf_dmx_sip_orig_dev_id, align 4
  %33 = tail call ptr @proto_tree_add_item(ptr noundef %12, i32 noundef %32, ptr noundef %0, i32 noundef 12, i32 noundef 2, i32 noundef 0)
  %34 = load i32, ptr @hf_dmx_sip_sec_dev_id, align 4
  %35 = tail call ptr @proto_tree_add_item(ptr noundef %12, i32 noundef %34, ptr noundef %0, i32 noundef 14, i32 noundef 2, i32 noundef 0)
  %36 = load i32, ptr @hf_dmx_sip_third_dev_id, align 4
  %37 = tail call ptr @proto_tree_add_item(ptr noundef %12, i32 noundef %36, ptr noundef %0, i32 noundef 16, i32 noundef 2, i32 noundef 0)
  %38 = load i32, ptr @hf_dmx_sip_fourth_dev_id, align 4
  %39 = tail call ptr @proto_tree_add_item(ptr noundef %12, i32 noundef %38, ptr noundef %0, i32 noundef 18, i32 noundef 2, i32 noundef 0)
  %40 = load i32, ptr @hf_dmx_sip_fifth_dev_id, align 4
  %41 = tail call ptr @proto_tree_add_item(ptr noundef %12, i32 noundef %40, ptr noundef %0, i32 noundef 20, i32 noundef 2, i32 noundef 0)
  %42 = icmp ugt i8 %13, 22
  br i1 %42, label %43, label %48

43:                                               ; preds = %8
  %44 = zext i8 %13 to i32
  %45 = load i32, ptr @hf_dmx_sip_reserved, align 4
  %46 = add nsw i32 %44, -22
  %47 = tail call ptr @proto_tree_add_item(ptr noundef %12, i32 noundef %45, ptr noundef %0, i32 noundef 22, i32 noundef %46, i32 noundef 0)
  br label %48

48:                                               ; preds = %43, %8
  %.0 = phi i32 [ %44, %43 ], [ 22, %8 ]
  %49 = load i32, ptr @hf_dmx_sip_checksum, align 4
  %50 = load i32, ptr @hf_dmx_sip_checksum_status, align 4
  br label %51

51:                                               ; preds = %51, %48
  %.08.i = phi i32 [ 0, %48 ], [ %54, %51 ]
  %.067.i = phi i8 [ -49, %48 ], [ %53, %51 ]
  %52 = tail call zeroext i8 @tvb_get_uint8(ptr noundef %0, i32 noundef %.08.i)
  %53 = add i8 %52, %.067.i
  %54 = add nuw nsw i32 %.08.i, 1
  %exitcond.not.i = icmp eq i32 %54, %.0
  br i1 %exitcond.not.i, label %dmx_sip_checksum.exit, label %51, !llvm.loop !9

dmx_sip_checksum.exit:                            ; preds = %51
  %55 = zext i8 %53 to i32
  %56 = tail call ptr @proto_tree_add_checksum(ptr noundef %12, ptr noundef %0, i32 noundef %.0, i32 noundef %49, i32 noundef %50, ptr noundef nonnull @ei_dmx_sip_checksum, ptr noundef %1, i32 noundef %55, i32 noundef 0, i32 noundef 1)
  %57 = add nuw nsw i32 %.0, 1
  %58 = tail call i32 @tvb_reported_length(ptr noundef %0)
  %59 = icmp ult i32 %57, %58
  br i1 %59, label %60, label %63

60:                                               ; preds = %dmx_sip_checksum.exit
  %61 = load i32, ptr @hf_dmx_sip_trailer, align 4
  %62 = tail call ptr @proto_tree_add_item(ptr noundef %12, i32 noundef %61, ptr noundef %0, i32 noundef %57, i32 noundef -1, i32 noundef 0)
  br label %63

63:                                               ; preds = %dmx_sip_checksum.exit, %60, %4
  %64 = tail call i32 @tvb_captured_length(ptr noundef %0)
  ret i32 %64
}